target datalayout = "e-m:e-p270:32:32-p271:32:32-p272:64:64-i64:64-i128:128-f80:128-n8:16:32:64-S128"
target triple = "x86_64-pc-linux-gnu"

@InitializingApplyWorker = dso_local global i8 0, align 1

; Function Attrs: inlinehint nounwind uwtable
define internal i32 @DatumGetInt32(i64 noundef %0) #3 {
  %2 = alloca i64, align 8
  store i64 %0, ptr %2, align 8
  %3 = load i64, ptr %2, align 8
  %4 = trunc i64 %3 to i32
  ret i32 %4
}

; Function Attrs: nounwind uwtable
define dso_local void @ApplyWorkerMain(i64 noundef %0) #0 {
  %2 = alloca i64, align 8
  %3 = alloca i32, align 4
  store i64 %0, ptr %2, align 8
  call void @llvm.lifetime.start.p0(i64 4, ptr %3) #12
  %4 = load i64, ptr %2, align 8
  %5 = call i32 @DatumGetInt32(i64 noundef %4)
  store i32 %5, ptr %3, align 4
  store i8 1, ptr @InitializingApplyWorker, align 1
  %6 = load i32, ptr %3, align 4
  call void @SetupApplyOrSyncWorker(i32 noundef %6)
  store i8 0, ptr @InitializingApplyWorker, align 1
  call void @run_apply_worker()
  call void @proc_exit(i32 noundef 0) #14
  unreachable
}