; Function Attrs: noreturn nounwind uwtable
define dso_local void @ApplyWorkerMain(i64 noundef %0) local_unnamed_addr #7 {
  %2 = trunc i64 %0 to i32
  store i8 1, ptr @InitializingApplyWorker, align 1
  tail call void @SetupApplyOrSyncWorker(i32 noundef %2)
  store i8 0, ptr @InitializingApplyWorker, align 1
  tail call fastcc void @run_apply_worker()
  tail call void @proc_exit(i32 noundef 0) #19
  unreachable
}